; ModuleID = 'source-C-CXX/38/1040.c'
source_filename = "source-C-CXX/38/1040.c"
target datalayout = "e-m:e-p270:32:32-p271:32:32-p272:64:64-i64:64-f80:128-n8:16:32:64-S128"
target triple = "x86_64-pc-linux-gnu"

@.str = private unnamed_addr constant [3 x i8] c"%d\00", align 1
@.str.1 = private unnamed_addr constant [13 x i8] c"%s%d%d%s%s%d\00", align 1
@.str.2 = private unnamed_addr constant [10 x i8] c"%s\0A%d\0A%d\0A\00", align 1

; Function Attrs: nofree nounwind sspstrong uwtable
define dso_local i32 @main() local_unnamed_addr #0 {
  %1 = alloca i32, align 4
  %2 = alloca i32, align 4
  %3 = alloca i32, align 4
  %4 = alloca i32, align 4
  %5 = alloca [20 x i8], align 16
  %6 = alloca [20 x i8], align 16
  %7 = alloca [2 x i8], align 1
  %8 = alloca [2 x i8], align 1
  %9 = bitcast i32* %1 to i8*
  call void @llvm.lifetime.start.p0i8(i64 4, i8* nonnull %9) #4
  %10 = bitcast i32* %2 to i8*
  call void @llvm.lifetime.start.p0i8(i64 4, i8* nonnull %10) #4
  %11 = bitcast i32* %3 to i8*
  call void @llvm.lifetime.start.p0i8(i64 4, i8* nonnull %11) #4
  %12 = bitcast i32* %4 to i8*
  call void @llvm.lifetime.start.p0i8(i64 4, i8* nonnull %12) #4
  %13 = getelementptr inbounds [20 x i8], [20 x i8]* %5, i64 0, i64 0
  call void @llvm.lifetime.start.p0i8(i64 20, i8* nonnull %13) #4
  %14 = getelementptr inbounds [20 x i8], [20 x i8]* %6, i64 0, i64 0
  call void @llvm.lifetime.start.p0i8(i64 20, i8* nonnull %14) #4
  %15 = getelementptr inbounds [2 x i8], [2 x i8]* %7, i64 0, i64 0
  call void @llvm.lifetime.start.p0i8(i64 2, i8* nonnull %15) #4
  %16 = getelementptr inbounds [2 x i8], [2 x i8]* %8, i64 0, i64 0
  call void @llvm.lifetime.start.p0i8(i64 2, i8* nonnull %16) #4
  %17 = call i32 (i8*, ...) @__isoc99_scanf(i8* getelementptr inbounds ([3 x i8], [3 x i8]* @.str, i64 0, i64 0), i32* nonnull %1)
  %18 = load i32, i32* %1, align 4, !tbaa !5
  %19 = icmp slt i32 %18, 1
  br i1 %19, label %59, label %20

20:                                               ; preds = %0, %54
  %21 = phi i32 [ %56, %54 ], [ 1, %0 ]
  %22 = phi i64 [ %55, %54 ], [ 0, %0 ]
  %23 = phi i64 [ %50, %54 ], [ 0, %0 ]
  %24 = call i32 (i8*, ...) @__isoc99_scanf(i8* getelementptr inbounds ([13 x i8], [13 x i8]* @.str.1, i64 0, i64 0), i8* nonnull %13, i32* nonnull %2, i32* nonnull %3, i8* nonnull %15, i8* nonnull %16, i32* nonnull %4)
  %25 = load i32, i32* %2, align 4, !tbaa !5
  %26 = icmp sgt i32 %25, 80
  %27 = load i32, i32* %4, align 4
  %28 = icmp ne i32 %27, 0
  %29 = select i1 %26, i1 %28, i1 false
  %30 = select i1 %29, i64 8000, i64 0
  %31 = icmp sgt i32 %25, 85
  %32 = load i32, i32* %3, align 4
  %33 = icmp sgt i32 %32, 80
  %34 = select i1 %31, i1 %33, i1 false
  %35 = add nuw nsw i64 %30, 4000
  %36 = select i1 %34, i64 %35, i64 %30
  %37 = icmp sgt i32 %25, 90
  %38 = add nuw nsw i64 %36, 2000
  %39 = select i1 %37, i64 %38, i64 %36
  %40 = load i8, i8* %16, align 1
  %41 = icmp eq i8 %40, 89
  %42 = select i1 %31, i1 %41, i1 false
  %43 = add nuw nsw i64 %39, 1000
  %44 = select i1 %42, i64 %43, i64 %39
  %45 = load i8, i8* %15, align 1
  %46 = icmp eq i8 %45, 89
  %47 = select i1 %33, i1 %46, i1 false
  %48 = add nuw nsw i64 %44, 850
  %49 = select i1 %47, i64 %48, i64 %44
  %50 = add nsw i64 %49, %23
  %51 = icmp sgt i64 %49, %22
  br i1 %51, label %52, label %54

52:                                               ; preds = %20
  %53 = call i8* @strcpy(i8* noundef nonnull %14, i8* noundef nonnull %13) #4
  br label %54

54:                                               ; preds = %20, %52
  %55 = phi i64 [ %49, %52 ], [ %22, %20 ]
  %56 = add nuw nsw i32 %21, 1
  %57 = load i32, i32* %1, align 4, !tbaa !5
  %58 = icmp slt i32 %21, %57
  br i1 %58, label %20, label %59, !llvm.loop !9

59:                                               ; preds = %54, %0
  %60 = phi i64 [ 0, %0 ], [ %50, %54 ]
  %61 = phi i64 [ 0, %0 ], [ %55, %54 ]
  %62 = call i32 (i8*, ...) @printf(i8* nonnull dereferenceable(1) getelementptr inbounds ([10 x i8], [10 x i8]* @.str.2, i64 0, i64 0), i8* nonnull %14, i64 %61, i64 %60)
  call void @llvm.lifetime.end.p0i8(i64 2, i8* nonnull %16) #4
  call void @llvm.lifetime.end.p0i8(i64 2, i8* nonnull %15) #4
  call void @llvm.lifetime.end.p0i8(i64 20, i8* nonnull %14) #4
  call void @llvm.lifetime.end.p0i8(i64 20, i8* nonnull %13) #4
  call void @llvm.lifetime.end.p0i8(i64 4, i8* nonnull %12) #4
  call void @llvm.lifetime.end.p0i8(i64 4, i8* nonnull %11) #4
  call void @llvm.lifetime.end.p0i8(i64 4, i8* nonnull %10) #4
  call void @llvm.lifetime.end.p0i8(i64 4, i8* nonnull %9) #4
  ret i32 0
}

; Function Attrs: argmemonly mustprogress nofree nosync nounwind willreturn
declare void @llvm.lifetime.start.p0i8(i64 immarg, i8* nocapture) #1

; Function Attrs: nofree nounwind
declare noundef i32 @__isoc99_scanf(i8* nocapture noundef readonly, ...) local_unnamed_addr #2

; Function Attrs: argmemonly mustprogress nofree nounwind willreturn
declare i8* @strcpy(i8* noalias returned writeonly, i8* noalias nocapture readonly) local_unnamed_addr #3

; Function Attrs: nofree nounwind
declare noundef i32 @printf(i8* nocapture noundef readonly, ...) local_unnamed_addr #2

; Function Attrs: argmemonly mustprogress nofree nosync nounwind willreturn
declare void @llvm.lifetime.end.p0i8(i64 immarg, i8* nocapture) #1


!llvm.module.flags = !{!0, !1, !2, !3}
!llvm.ident = !{!4}

!0 = !{i32 1, !"wchar_size", i32 4}
!1 = !{i32 7, !"PIC Level", i32 2}
!2 = !{i32 7, !"PIE Level", i32 2}
!3 = !{i32 7, !"uwtable", i32 1}
!4 = !{!"clang version 13.0.0"}
!5 = !{!6, !6, i64 0}
!6 = !{!"int", !7, i64 0}
!7 = !{!"omnipotent char", !8, i64 0}
!8 = !{!"Simple C/C++ TBAA"}
!9 = distinct !{!9, !10}
!10 = !{!"llvm.loop.mustprogress"}
